; Function Attrs: nounwind sspstrong uwtable
define dso_local void @job_cancel_sync_all() local_unnamed_addr #0 {
  %1 = load atomic i64, ptr @qemu_mutex_lock_func monotonic, align 8
  %2 = inttoptr i64 %1 to ptr
  tail call void %2(ptr noundef nonnull @job_mutex, ptr noundef nonnull @.str.29, i32 noundef 56) #15
  %.0.i1 = load ptr, ptr @jobs, align 8
  %.not2 = icmp eq ptr %.0.i1, null
  br i1 %.not2, label %glib_autoptr_cleanup_QemuLockable.exit, label %.lr.ph

.lr.ph:                                           ; preds = %0, %.lr.ph
  %.0.i3 = phi ptr [ %.0.i, %.lr.ph ], [ %.0.i1, %0 ]
  %3 = tail call i32 @job_finish_sync_locked(ptr noundef nonnull %.0.i3, ptr noundef nonnull @job_force_cancel_err_locked, ptr noundef null)
  %.0.i = load ptr, ptr @jobs, align 8
  %.not = icmp eq ptr %.0.i, null
  br i1 %.not, label %glib_autoptr_cleanup_QemuLockable.exit, label %.lr.ph, !llvm.loop !18

glib_autoptr_cleanup_QemuLockable.exit:           ; preds = %.lr.ph, %0
  tail call void @qemu_mutex_unlock_impl(ptr noundef nonnull @job_mutex, ptr noundef nonnull @.str.29, i32 noundef 56) #15
  ret void
}